; Function Attrs: nounwind uwtable
define internal range(i32 0, 2) i32 @pcapng_process_name_resolution_block_option(ptr noundef readonly captures(none) %0, ptr noundef readonly captures(none) %1, i16 noundef zeroext %2, i16 noundef zeroext %3, ptr noundef %4, ptr noundef %5, ptr noundef %6) #0 {
  %8 = load ptr, ptr getelementptr inbounds nuw (i8, ptr @option_handlers, i64 24), align 8
  %.not.i = icmp eq ptr %8, null
  br i1 %.not.i, label %pcapng_process_unhandled_option.exit, label %9

9:                                                ; preds = %7
  %10 = zext i16 %2 to i64
  %11 = inttoptr i64 %10 to ptr
  %12 = tail call ptr @g_hash_table_lookup(ptr noundef nonnull %8, ptr noundef %11) #16
  %.not12.i = icmp eq ptr %12, null
  br i1 %.not12.i, label %pcapng_process_unhandled_option.exit, label %13

13:                                               ; preds = %9
  %14 = load ptr, ptr %12, align 8
  %15 = getelementptr inbounds nuw i8, ptr %0, i64 8
  %16 = load ptr, ptr %15, align 8
  %17 = load i32, ptr %1, align 8
  %18 = zext i16 %3 to i32
  %19 = tail call i32 %14(ptr noundef %16, i32 noundef %17, i32 noundef %18, ptr noundef %4, ptr noundef %5, ptr noundef %6) #16
  %.not13.i = icmp ne i32 %19, 0
  %spec.select = zext i1 %.not13.i to i32
  br label %pcapng_process_unhandled_option.exit

pcapng_process_unhandled_option.exit:             ; preds = %13, %9, %7
  %20 = phi i32 [ 1, %7 ], [ 1, %9 ], [ %spec.select, %13 ]
  ret i32 %20
}